ARM GAS  C:\Users\LOCALA~1\AppData\Local\Temp\ccfFUibe.s 			page 1


   1              		.syntax unified
   2              		.cpu cortex-m3
   3              		.fpu softvfp
   4              		.eabi_attribute 20, 1
   5              		.eabi_attribute 21, 1
   6              		.eabi_attribute 23, 3
   7              		.eabi_attribute 24, 1
   8              		.eabi_attribute 25, 1
   9              		.eabi_attribute 26, 1
  10              		.eabi_attribute 30, 6
  11              		.eabi_attribute 34, 1
  12              		.eabi_attribute 18, 4
  13              		.thumb
  14              		.file	"PrISM_1_PM.c"
  15              		.text
  16              	.Ltext0:
  17              		.cfi_sections	.debug_frame
  18              		.data
  19              		.align	2
  20              		.type	PrISM_1_backup, %object
  21              		.size	PrISM_1_backup, 5
  22              	PrISM_1_backup:
  23 0000 00       		.byte	0
  24 0001 04       		.byte	4
  25 0002 FF       		.byte	-1
  26 0003 FF       		.byte	-1
  27 0004 B8       		.byte	-72
  28 0005 000000   		.section	.text.PrISM_1_SaveConfig,"ax",%progbits
  29              		.align	2
  30              		.global	PrISM_1_SaveConfig
  31              		.thumb
  32              		.thumb_func
  33              		.type	PrISM_1_SaveConfig, %function
  34              	PrISM_1_SaveConfig:
  35              	.LFB0:
  36              		.file 1 "Generated_Source\\PSoC5\\PrISM_1_PM.c"
   1:Generated_Source\PSoC5/PrISM_1_PM.c **** /*******************************************************************************
   2:Generated_Source\PSoC5/PrISM_1_PM.c **** * File Name: PrISM_1_PM.c
   3:Generated_Source\PSoC5/PrISM_1_PM.c **** * Version 2.20
   4:Generated_Source\PSoC5/PrISM_1_PM.c **** *
   5:Generated_Source\PSoC5/PrISM_1_PM.c **** * Description:
   6:Generated_Source\PSoC5/PrISM_1_PM.c **** *  This file provides Sleep/WakeUp APIs functionality of the PrISM component
   7:Generated_Source\PSoC5/PrISM_1_PM.c **** *
   8:Generated_Source\PSoC5/PrISM_1_PM.c **** * Note:
   9:Generated_Source\PSoC5/PrISM_1_PM.c **** *
  10:Generated_Source\PSoC5/PrISM_1_PM.c **** ********************************************************************************
  11:Generated_Source\PSoC5/PrISM_1_PM.c **** * Copyright 2008-2012, Cypress Semiconductor Corporation.  All rights reserved.
  12:Generated_Source\PSoC5/PrISM_1_PM.c **** * You may use this file only in accordance with the license, terms, conditions, 
  13:Generated_Source\PSoC5/PrISM_1_PM.c **** * disclaimers, and limitations in the end user license agreement accompanying 
  14:Generated_Source\PSoC5/PrISM_1_PM.c **** * the software package with which this file was provided.
  15:Generated_Source\PSoC5/PrISM_1_PM.c **** *******************************************************************************/
  16:Generated_Source\PSoC5/PrISM_1_PM.c **** 
  17:Generated_Source\PSoC5/PrISM_1_PM.c **** #include "PrISM_1.h"
  18:Generated_Source\PSoC5/PrISM_1_PM.c **** 
  19:Generated_Source\PSoC5/PrISM_1_PM.c **** 
  20:Generated_Source\PSoC5/PrISM_1_PM.c **** /***************************************
  21:Generated_Source\PSoC5/PrISM_1_PM.c **** * Local data allocation
ARM GAS  C:\Users\LOCALA~1\AppData\Local\Temp\ccfFUibe.s 			page 2


  22:Generated_Source\PSoC5/PrISM_1_PM.c **** ***************************************/
  23:Generated_Source\PSoC5/PrISM_1_PM.c **** static PrISM_1_BACKUP_STRUCT  PrISM_1_backup = 
  24:Generated_Source\PSoC5/PrISM_1_PM.c **** {
  25:Generated_Source\PSoC5/PrISM_1_PM.c ****     /* enableState */
  26:Generated_Source\PSoC5/PrISM_1_PM.c ****     0u,
  27:Generated_Source\PSoC5/PrISM_1_PM.c ****     /* cr */
  28:Generated_Source\PSoC5/PrISM_1_PM.c ****     #if(!PrISM_1_PULSE_TYPE_HARDCODED)
  29:Generated_Source\PSoC5/PrISM_1_PM.c ****        (((PrISM_1_GREATERTHAN_OR_EQUAL == PrISM_1_COMPARE0) ? \
  30:Generated_Source\PSoC5/PrISM_1_PM.c ****                                                 PrISM_1_CTRL_COMPARE_TYPE0_GREATER_THAN_OR_EQUAL : 
  31:Generated_Source\PSoC5/PrISM_1_PM.c ****         ((PrISM_1_GREATERTHAN_OR_EQUAL == PrISM_1_COMPARE1) ? \
  32:Generated_Source\PSoC5/PrISM_1_PM.c ****                                                 PrISM_1_CTRL_COMPARE_TYPE1_GREATER_THAN_OR_EQUAL : 
  33:Generated_Source\PSoC5/PrISM_1_PM.c ****     #endif /* End PrISM_1_PULSE_TYPE_HARDCODED */
  34:Generated_Source\PSoC5/PrISM_1_PM.c ****     /* seed */    
  35:Generated_Source\PSoC5/PrISM_1_PM.c ****     PrISM_1_SEED,
  36:Generated_Source\PSoC5/PrISM_1_PM.c ****     /* seed_copy */    
  37:Generated_Source\PSoC5/PrISM_1_PM.c ****     PrISM_1_SEED,
  38:Generated_Source\PSoC5/PrISM_1_PM.c ****     /* polynom */
  39:Generated_Source\PSoC5/PrISM_1_PM.c ****     PrISM_1_POLYNOM,
  40:Generated_Source\PSoC5/PrISM_1_PM.c ****     #if(CY_UDB_V0)
  41:Generated_Source\PSoC5/PrISM_1_PM.c ****         /* density0 */
  42:Generated_Source\PSoC5/PrISM_1_PM.c ****         PrISM_1_DENSITY0,
  43:Generated_Source\PSoC5/PrISM_1_PM.c ****         /* density1 */
  44:Generated_Source\PSoC5/PrISM_1_PM.c ****         PrISM_1_DENSITY1,
  45:Generated_Source\PSoC5/PrISM_1_PM.c ****     #endif /*End CY_UDB_V0*/
  46:Generated_Source\PSoC5/PrISM_1_PM.c **** };
  47:Generated_Source\PSoC5/PrISM_1_PM.c **** 
  48:Generated_Source\PSoC5/PrISM_1_PM.c **** 
  49:Generated_Source\PSoC5/PrISM_1_PM.c **** /*******************************************************************************
  50:Generated_Source\PSoC5/PrISM_1_PM.c **** * Function Name: PrISM_1_SaveConfig
  51:Generated_Source\PSoC5/PrISM_1_PM.c **** ********************************************************************************
  52:Generated_Source\PSoC5/PrISM_1_PM.c **** *
  53:Generated_Source\PSoC5/PrISM_1_PM.c **** * Summary:
  54:Generated_Source\PSoC5/PrISM_1_PM.c **** *  Saves the current user configuration.
  55:Generated_Source\PSoC5/PrISM_1_PM.c **** *  
  56:Generated_Source\PSoC5/PrISM_1_PM.c **** * Parameters:  
  57:Generated_Source\PSoC5/PrISM_1_PM.c **** *  None.
  58:Generated_Source\PSoC5/PrISM_1_PM.c **** *
  59:Generated_Source\PSoC5/PrISM_1_PM.c **** * Return: 
  60:Generated_Source\PSoC5/PrISM_1_PM.c **** *  None.
  61:Generated_Source\PSoC5/PrISM_1_PM.c **** *
  62:Generated_Source\PSoC5/PrISM_1_PM.c **** * Global Variables:
  63:Generated_Source\PSoC5/PrISM_1_PM.c **** *  PrISM_1_backup - modified when non-retention registers are saved.
  64:Generated_Source\PSoC5/PrISM_1_PM.c **** *
  65:Generated_Source\PSoC5/PrISM_1_PM.c **** * Reentrant:
  66:Generated_Source\PSoC5/PrISM_1_PM.c **** *  No.
  67:Generated_Source\PSoC5/PrISM_1_PM.c **** *
  68:Generated_Source\PSoC5/PrISM_1_PM.c **** *******************************************************************************/
  69:Generated_Source\PSoC5/PrISM_1_PM.c **** void PrISM_1_SaveConfig(void) 
  70:Generated_Source\PSoC5/PrISM_1_PM.c **** {
  37              		.loc 1 70 0
  38              		.cfi_startproc
  39              		@ args = 0, pretend = 0, frame = 0
  40              		@ frame_needed = 1, uses_anonymous_args = 0
  41 0000 80B5     		push	{r7, lr}
  42              		.cfi_def_cfa_offset 8
  43              		.cfi_offset 7, -8
  44              		.cfi_offset 14, -4
ARM GAS  C:\Users\LOCALA~1\AppData\Local\Temp\ccfFUibe.s 			page 3


  45 0002 00AF     		add	r7, sp, #0
  46              		.cfi_def_cfa_register 7
  71:Generated_Source\PSoC5/PrISM_1_PM.c ****     #if (CY_UDB_V0)
  72:Generated_Source\PSoC5/PrISM_1_PM.c ****         #if(!PrISM_1_PULSE_TYPE_HARDCODED)
  73:Generated_Source\PSoC5/PrISM_1_PM.c ****             PrISM_1_backup.cr = PrISM_1_CONTROL_REG;
  74:Generated_Source\PSoC5/PrISM_1_PM.c ****         #endif /* End PrISM_1_PULSE_TYPE_HARDCODED */
  75:Generated_Source\PSoC5/PrISM_1_PM.c ****         PrISM_1_backup.seed = PrISM_1_ReadSeed();
  76:Generated_Source\PSoC5/PrISM_1_PM.c ****         PrISM_1_backup.seed_copy = CY_GET_REG8(PrISM_1_SEED_COPY_PTR);
  77:Generated_Source\PSoC5/PrISM_1_PM.c ****         PrISM_1_backup.polynom = PrISM_1_ReadPolynomial();
  78:Generated_Source\PSoC5/PrISM_1_PM.c ****         PrISM_1_backup.density0 = PrISM_1_ReadPulse0();
  79:Generated_Source\PSoC5/PrISM_1_PM.c ****         PrISM_1_backup.density1 = PrISM_1_ReadPulse1();
  80:Generated_Source\PSoC5/PrISM_1_PM.c ****     #else /* CY_UDB_V1 */
  81:Generated_Source\PSoC5/PrISM_1_PM.c ****         #if(!PrISM_1_PULSE_TYPE_HARDCODED)
  82:Generated_Source\PSoC5/PrISM_1_PM.c ****             PrISM_1_backup.cr = PrISM_1_CONTROL_REG;
  47              		.loc 1 82 0
  48 0004 0B4B     		ldr	r3, .L2
  49 0006 1B78     		ldrb	r3, [r3]
  50 0008 DAB2     		uxtb	r2, r3
  51 000a 0B4B     		ldr	r3, .L2+4
  52 000c 5A70     		strb	r2, [r3, #1]
  83:Generated_Source\PSoC5/PrISM_1_PM.c ****         #endif /* End PrISM_1_PULSE_TYPE_HARDCODED */
  84:Generated_Source\PSoC5/PrISM_1_PM.c ****         PrISM_1_backup.seed = PrISM_1_ReadSeed();
  53              		.loc 1 84 0
  54 000e FFF7FEFF 		bl	PrISM_1_ReadSeed
  55 0012 0346     		mov	r3, r0
  56 0014 1A46     		mov	r2, r3
  57 0016 084B     		ldr	r3, .L2+4
  58 0018 9A70     		strb	r2, [r3, #2]
  85:Generated_Source\PSoC5/PrISM_1_PM.c ****         PrISM_1_backup.seed_copy = CY_GET_REG8(PrISM_1_SEED_COPY_PTR);
  59              		.loc 1 85 0
  60 001a 084B     		ldr	r3, .L2+8
  61 001c 1B78     		ldrb	r3, [r3]
  62 001e DAB2     		uxtb	r2, r3
  63 0020 054B     		ldr	r3, .L2+4
  64 0022 DA70     		strb	r2, [r3, #3]
  86:Generated_Source\PSoC5/PrISM_1_PM.c ****         PrISM_1_backup.polynom = PrISM_1_ReadPolynomial();
  65              		.loc 1 86 0
  66 0024 FFF7FEFF 		bl	PrISM_1_ReadPolynomial
  67 0028 0346     		mov	r3, r0
  68 002a 1A46     		mov	r2, r3
  69 002c 024B     		ldr	r3, .L2+4
  70 002e 1A71     		strb	r2, [r3, #4]
  87:Generated_Source\PSoC5/PrISM_1_PM.c ****     #endif  /* CY_UDB_V0 */
  88:Generated_Source\PSoC5/PrISM_1_PM.c **** }
  71              		.loc 1 88 0
  72 0030 80BD     		pop	{r7, pc}
  73              	.L3:
  74 0032 00BF     		.align	2
  75              	.L2:
  76 0034 7B640040 		.word	1073767547
  77 0038 00000000 		.word	PrISM_1_backup
  78 003c 4B640040 		.word	1073767499
  79              		.cfi_endproc
  80              	.LFE0:
  81              		.size	PrISM_1_SaveConfig, .-PrISM_1_SaveConfig
  82              		.section	.text.PrISM_1_RestoreConfig,"ax",%progbits
  83              		.align	2
ARM GAS  C:\Users\LOCALA~1\AppData\Local\Temp\ccfFUibe.s 			page 4


  84              		.global	PrISM_1_RestoreConfig
  85              		.thumb
  86              		.thumb_func
  87              		.type	PrISM_1_RestoreConfig, %function
  88              	PrISM_1_RestoreConfig:
  89              	.LFB1:
  89:Generated_Source\PSoC5/PrISM_1_PM.c **** 
  90:Generated_Source\PSoC5/PrISM_1_PM.c **** 
  91:Generated_Source\PSoC5/PrISM_1_PM.c **** /*******************************************************************************
  92:Generated_Source\PSoC5/PrISM_1_PM.c **** * Function Name: PrISM_1_RestoreConfig
  93:Generated_Source\PSoC5/PrISM_1_PM.c **** ********************************************************************************
  94:Generated_Source\PSoC5/PrISM_1_PM.c **** *
  95:Generated_Source\PSoC5/PrISM_1_PM.c **** * Summary:
  96:Generated_Source\PSoC5/PrISM_1_PM.c **** *  Restores the current user configuration.
  97:Generated_Source\PSoC5/PrISM_1_PM.c **** *
  98:Generated_Source\PSoC5/PrISM_1_PM.c **** * Parameters:  
  99:Generated_Source\PSoC5/PrISM_1_PM.c **** *  None.
 100:Generated_Source\PSoC5/PrISM_1_PM.c **** *
 101:Generated_Source\PSoC5/PrISM_1_PM.c **** * Return: 
 102:Generated_Source\PSoC5/PrISM_1_PM.c **** *  None.
 103:Generated_Source\PSoC5/PrISM_1_PM.c **** *
 104:Generated_Source\PSoC5/PrISM_1_PM.c **** * Global Variables:
 105:Generated_Source\PSoC5/PrISM_1_PM.c **** *  PrISM_1_backup - used when non-retention registers are restored.
 106:Generated_Source\PSoC5/PrISM_1_PM.c **** *
 107:Generated_Source\PSoC5/PrISM_1_PM.c **** *******************************************************************************/
 108:Generated_Source\PSoC5/PrISM_1_PM.c **** void PrISM_1_RestoreConfig(void) 
 109:Generated_Source\PSoC5/PrISM_1_PM.c **** {
  90              		.loc 1 109 0
  91              		.cfi_startproc
  92              		@ args = 0, pretend = 0, frame = 0
  93              		@ frame_needed = 1, uses_anonymous_args = 0
  94 0000 80B5     		push	{r7, lr}
  95              		.cfi_def_cfa_offset 8
  96              		.cfi_offset 7, -8
  97              		.cfi_offset 14, -4
  98 0002 00AF     		add	r7, sp, #0
  99              		.cfi_def_cfa_register 7
 110:Generated_Source\PSoC5/PrISM_1_PM.c ****     #if (CY_UDB_V0)
 111:Generated_Source\PSoC5/PrISM_1_PM.c ****     
 112:Generated_Source\PSoC5/PrISM_1_PM.c ****         uint8 enableInterrupts;
 113:Generated_Source\PSoC5/PrISM_1_PM.c ****         
 114:Generated_Source\PSoC5/PrISM_1_PM.c ****         #if(!PrISM_1_PULSE_TYPE_HARDCODED)
 115:Generated_Source\PSoC5/PrISM_1_PM.c ****             PrISM_1_CONTROL_REG = PrISM_1_backup.cr;
 116:Generated_Source\PSoC5/PrISM_1_PM.c ****         #endif /* End PrISM_1_PULSE_TYPE_HARDCODED */
 117:Generated_Source\PSoC5/PrISM_1_PM.c **** 
 118:Generated_Source\PSoC5/PrISM_1_PM.c ****         CY_SET_REG8(PrISM_1_SEED_COPY_PTR, PrISM_1_backup.seed_copy);
 119:Generated_Source\PSoC5/PrISM_1_PM.c ****         CY_SET_REG8(PrISM_1_SEED_PTR, PrISM_1_backup.seed);
 120:Generated_Source\PSoC5/PrISM_1_PM.c ****         PrISM_1_WritePolynomial(PrISM_1_backup.polynom);
 121:Generated_Source\PSoC5/PrISM_1_PM.c ****         PrISM_1_WritePulse0(PrISM_1_backup.density0);
 122:Generated_Source\PSoC5/PrISM_1_PM.c ****         PrISM_1_WritePulse1(PrISM_1_backup.density1);
 123:Generated_Source\PSoC5/PrISM_1_PM.c ****         
 124:Generated_Source\PSoC5/PrISM_1_PM.c ****         enableInterrupts = CyEnterCriticalSection();
 125:Generated_Source\PSoC5/PrISM_1_PM.c ****         /* Set FIFO0_CLR bit to use FIFO0 as a simple one-byte buffer*/
 126:Generated_Source\PSoC5/PrISM_1_PM.c ****         CY_SET_REG8(PrISM_1_AUX_CONTROL_PTR, 
 127:Generated_Source\PSoC5/PrISM_1_PM.c ****                         CY_GET_REG8(PrISM_1_AUX_CONTROL_PTR) | PrISM_1_FIFO0_CLR);
 128:Generated_Source\PSoC5/PrISM_1_PM.c ****         CyExitCriticalSection(enableInterrupts);
 129:Generated_Source\PSoC5/PrISM_1_PM.c **** 
ARM GAS  C:\Users\LOCALA~1\AppData\Local\Temp\ccfFUibe.s 			page 5


 130:Generated_Source\PSoC5/PrISM_1_PM.c ****     #else   /* CY_UDB_V1 */
 131:Generated_Source\PSoC5/PrISM_1_PM.c **** 
 132:Generated_Source\PSoC5/PrISM_1_PM.c ****         #if(!PrISM_1_PULSE_TYPE_HARDCODED)
 133:Generated_Source\PSoC5/PrISM_1_PM.c ****             PrISM_1_CONTROL_REG = PrISM_1_backup.cr;
 100              		.loc 1 133 0
 101 0004 084B     		ldr	r3, .L5
 102 0006 094A     		ldr	r2, .L5+4
 103 0008 5278     		ldrb	r2, [r2, #1]	@ zero_extendqisi2
 104 000a 1A70     		strb	r2, [r3]
 134:Generated_Source\PSoC5/PrISM_1_PM.c ****         #endif /* End PrISM_1_PULSE_TYPE_HARDCODED */
 135:Generated_Source\PSoC5/PrISM_1_PM.c **** 
 136:Generated_Source\PSoC5/PrISM_1_PM.c ****         CY_SET_REG8(PrISM_1_SEED_COPY_PTR, PrISM_1_backup.seed_copy);
 105              		.loc 1 136 0
 106 000c 084B     		ldr	r3, .L5+8
 107 000e 074A     		ldr	r2, .L5+4
 108 0010 D278     		ldrb	r2, [r2, #3]	@ zero_extendqisi2
 109 0012 1A70     		strb	r2, [r3]
 137:Generated_Source\PSoC5/PrISM_1_PM.c ****         CY_SET_REG8(PrISM_1_SEED_PTR, PrISM_1_backup.seed);
 110              		.loc 1 137 0
 111 0014 074B     		ldr	r3, .L5+12
 112 0016 054A     		ldr	r2, .L5+4
 113 0018 9278     		ldrb	r2, [r2, #2]	@ zero_extendqisi2
 114 001a 1A70     		strb	r2, [r3]
 138:Generated_Source\PSoC5/PrISM_1_PM.c ****         PrISM_1_WritePolynomial(PrISM_1_backup.polynom);
 115              		.loc 1 138 0
 116 001c 034B     		ldr	r3, .L5+4
 117 001e 1B79     		ldrb	r3, [r3, #4]	@ zero_extendqisi2
 118 0020 1846     		mov	r0, r3
 119 0022 FFF7FEFF 		bl	PrISM_1_WritePolynomial
 139:Generated_Source\PSoC5/PrISM_1_PM.c ****     
 140:Generated_Source\PSoC5/PrISM_1_PM.c ****     #endif  /* End CY_UDB_V0 */
 141:Generated_Source\PSoC5/PrISM_1_PM.c **** }
 120              		.loc 1 141 0
 121 0026 80BD     		pop	{r7, pc}
 122              	.L6:
 123              		.align	2
 124              	.L5:
 125 0028 7B640040 		.word	1073767547
 126 002c 00000000 		.word	PrISM_1_backup
 127 0030 4B640040 		.word	1073767499
 128 0034 0B640040 		.word	1073767435
 129              		.cfi_endproc
 130              	.LFE1:
 131              		.size	PrISM_1_RestoreConfig, .-PrISM_1_RestoreConfig
 132              		.section	.text.PrISM_1_Sleep,"ax",%progbits
 133              		.align	2
 134              		.global	PrISM_1_Sleep
 135              		.thumb
 136              		.thumb_func
 137              		.type	PrISM_1_Sleep, %function
 138              	PrISM_1_Sleep:
 139              	.LFB2:
 142:Generated_Source\PSoC5/PrISM_1_PM.c **** 
 143:Generated_Source\PSoC5/PrISM_1_PM.c **** 
 144:Generated_Source\PSoC5/PrISM_1_PM.c **** /*******************************************************************************
 145:Generated_Source\PSoC5/PrISM_1_PM.c **** * Function Name: PrISM_1_Sleep
 146:Generated_Source\PSoC5/PrISM_1_PM.c **** ********************************************************************************
ARM GAS  C:\Users\LOCALA~1\AppData\Local\Temp\ccfFUibe.s 			page 6


 147:Generated_Source\PSoC5/PrISM_1_PM.c **** *
 148:Generated_Source\PSoC5/PrISM_1_PM.c **** * Summary:
 149:Generated_Source\PSoC5/PrISM_1_PM.c **** *  Stops and saves the user configuration
 150:Generated_Source\PSoC5/PrISM_1_PM.c **** *  
 151:Generated_Source\PSoC5/PrISM_1_PM.c **** * Parameters:  
 152:Generated_Source\PSoC5/PrISM_1_PM.c **** *  None.
 153:Generated_Source\PSoC5/PrISM_1_PM.c **** *
 154:Generated_Source\PSoC5/PrISM_1_PM.c **** * Return: 
 155:Generated_Source\PSoC5/PrISM_1_PM.c **** *  None.
 156:Generated_Source\PSoC5/PrISM_1_PM.c **** *
 157:Generated_Source\PSoC5/PrISM_1_PM.c **** * Global Variables:
 158:Generated_Source\PSoC5/PrISM_1_PM.c **** *  PrISM_1_backup - modified when non-retention registers are saved.
 159:Generated_Source\PSoC5/PrISM_1_PM.c **** *
 160:Generated_Source\PSoC5/PrISM_1_PM.c **** * Reentrant:
 161:Generated_Source\PSoC5/PrISM_1_PM.c **** *  No.
 162:Generated_Source\PSoC5/PrISM_1_PM.c **** *
 163:Generated_Source\PSoC5/PrISM_1_PM.c **** *******************************************************************************/
 164:Generated_Source\PSoC5/PrISM_1_PM.c **** void PrISM_1_Sleep(void) 
 165:Generated_Source\PSoC5/PrISM_1_PM.c **** {
 140              		.loc 1 165 0
 141              		.cfi_startproc
 142              		@ args = 0, pretend = 0, frame = 0
 143              		@ frame_needed = 1, uses_anonymous_args = 0
 144 0000 80B5     		push	{r7, lr}
 145              		.cfi_def_cfa_offset 8
 146              		.cfi_offset 7, -8
 147              		.cfi_offset 14, -4
 148 0002 00AF     		add	r7, sp, #0
 149              		.cfi_def_cfa_register 7
 166:Generated_Source\PSoC5/PrISM_1_PM.c ****     #if(!PrISM_1_PULSE_TYPE_HARDCODED)
 167:Generated_Source\PSoC5/PrISM_1_PM.c ****         if((PrISM_1_CONTROL_REG & PrISM_1_CTRL_ENABLE) != 0u) 
 150              		.loc 1 167 0
 151 0004 094B     		ldr	r3, .L10
 152 0006 1B78     		ldrb	r3, [r3]
 153 0008 DBB2     		uxtb	r3, r3
 154 000a 03F00103 		and	r3, r3, #1
 155 000e 002B     		cmp	r3, #0
 156 0010 03D0     		beq	.L8
 168:Generated_Source\PSoC5/PrISM_1_PM.c ****         {
 169:Generated_Source\PSoC5/PrISM_1_PM.c ****             PrISM_1_backup.enableState = 1u;
 157              		.loc 1 169 0
 158 0012 074B     		ldr	r3, .L10+4
 159 0014 0122     		movs	r2, #1
 160 0016 1A70     		strb	r2, [r3]
 161 0018 02E0     		b	.L9
 162              	.L8:
 170:Generated_Source\PSoC5/PrISM_1_PM.c ****         }
 171:Generated_Source\PSoC5/PrISM_1_PM.c ****         else
 172:Generated_Source\PSoC5/PrISM_1_PM.c ****         {
 173:Generated_Source\PSoC5/PrISM_1_PM.c ****             PrISM_1_backup.enableState = 0u;
 163              		.loc 1 173 0
 164 001a 054B     		ldr	r3, .L10+4
 165 001c 0022     		movs	r2, #0
 166 001e 1A70     		strb	r2, [r3]
 167              	.L9:
 174:Generated_Source\PSoC5/PrISM_1_PM.c ****         }
 175:Generated_Source\PSoC5/PrISM_1_PM.c ****     #endif /* End PrISM_1_PULSE_TYPE_HARDCODED */
ARM GAS  C:\Users\LOCALA~1\AppData\Local\Temp\ccfFUibe.s 			page 7


 176:Generated_Source\PSoC5/PrISM_1_PM.c ****     PrISM_1_Stop();
 168              		.loc 1 176 0
 169 0020 FFF7FEFF 		bl	PrISM_1_Stop
 177:Generated_Source\PSoC5/PrISM_1_PM.c ****     PrISM_1_SaveConfig();
 170              		.loc 1 177 0
 171 0024 FFF7FEFF 		bl	PrISM_1_SaveConfig
 178:Generated_Source\PSoC5/PrISM_1_PM.c **** }
 172              		.loc 1 178 0
 173 0028 80BD     		pop	{r7, pc}
 174              	.L11:
 175 002a 00BF     		.align	2
 176              	.L10:
 177 002c 7B640040 		.word	1073767547
 178 0030 00000000 		.word	PrISM_1_backup
 179              		.cfi_endproc
 180              	.LFE2:
 181              		.size	PrISM_1_Sleep, .-PrISM_1_Sleep
 182              		.section	.text.PrISM_1_Wakeup,"ax",%progbits
 183              		.align	2
 184              		.global	PrISM_1_Wakeup
 185              		.thumb
 186              		.thumb_func
 187              		.type	PrISM_1_Wakeup, %function
 188              	PrISM_1_Wakeup:
 189              	.LFB3:
 179:Generated_Source\PSoC5/PrISM_1_PM.c **** 
 180:Generated_Source\PSoC5/PrISM_1_PM.c **** 
 181:Generated_Source\PSoC5/PrISM_1_PM.c **** /*******************************************************************************
 182:Generated_Source\PSoC5/PrISM_1_PM.c **** * Function Name: PrISM_1_Wakeup
 183:Generated_Source\PSoC5/PrISM_1_PM.c **** ********************************************************************************
 184:Generated_Source\PSoC5/PrISM_1_PM.c **** *
 185:Generated_Source\PSoC5/PrISM_1_PM.c **** * Summary:
 186:Generated_Source\PSoC5/PrISM_1_PM.c **** *  Restores and enables the user configuration
 187:Generated_Source\PSoC5/PrISM_1_PM.c **** *  
 188:Generated_Source\PSoC5/PrISM_1_PM.c **** * Parameters:  
 189:Generated_Source\PSoC5/PrISM_1_PM.c **** *  None.
 190:Generated_Source\PSoC5/PrISM_1_PM.c **** *
 191:Generated_Source\PSoC5/PrISM_1_PM.c **** * Return: 
 192:Generated_Source\PSoC5/PrISM_1_PM.c **** *  None.
 193:Generated_Source\PSoC5/PrISM_1_PM.c **** *
 194:Generated_Source\PSoC5/PrISM_1_PM.c **** * Global Variables:
 195:Generated_Source\PSoC5/PrISM_1_PM.c **** *  PrISM_1_backup - used when non-retention registers are restored.
 196:Generated_Source\PSoC5/PrISM_1_PM.c **** *
 197:Generated_Source\PSoC5/PrISM_1_PM.c **** *******************************************************************************/
 198:Generated_Source\PSoC5/PrISM_1_PM.c **** void PrISM_1_Wakeup(void) 
 199:Generated_Source\PSoC5/PrISM_1_PM.c **** {
 190              		.loc 1 199 0
 191              		.cfi_startproc
 192              		@ args = 0, pretend = 0, frame = 0
 193              		@ frame_needed = 1, uses_anonymous_args = 0
 194 0000 80B5     		push	{r7, lr}
 195              		.cfi_def_cfa_offset 8
 196              		.cfi_offset 7, -8
 197              		.cfi_offset 14, -4
 198 0002 00AF     		add	r7, sp, #0
 199              		.cfi_def_cfa_register 7
 200:Generated_Source\PSoC5/PrISM_1_PM.c ****     PrISM_1_RestoreConfig();
ARM GAS  C:\Users\LOCALA~1\AppData\Local\Temp\ccfFUibe.s 			page 8


 200              		.loc 1 200 0
 201 0004 FFF7FEFF 		bl	PrISM_1_RestoreConfig
 201:Generated_Source\PSoC5/PrISM_1_PM.c ****     if(PrISM_1_backup.enableState != 0u)
 202              		.loc 1 201 0
 203 0008 034B     		ldr	r3, .L14
 204 000a 1B78     		ldrb	r3, [r3]	@ zero_extendqisi2
 205 000c 002B     		cmp	r3, #0
 206 000e 01D0     		beq	.L12
 202:Generated_Source\PSoC5/PrISM_1_PM.c ****     {
 203:Generated_Source\PSoC5/PrISM_1_PM.c ****         PrISM_1_Enable();
 207              		.loc 1 203 0
 208 0010 FFF7FEFF 		bl	PrISM_1_Enable
 209              	.L12:
 204:Generated_Source\PSoC5/PrISM_1_PM.c ****     } 
 205:Generated_Source\PSoC5/PrISM_1_PM.c **** }
 210              		.loc 1 205 0
 211 0014 80BD     		pop	{r7, pc}
 212              	.L15:
 213 0016 00BF     		.align	2
 214              	.L14:
 215 0018 00000000 		.word	PrISM_1_backup
 216              		.cfi_endproc
 217              	.LFE3:
 218              		.size	PrISM_1_Wakeup, .-PrISM_1_Wakeup
 219              		.text
 220              	.Letext0:
 221              		.file 2 "Generated_Source\\PSoC5\\cytypes.h"
 222              		.file 3 "Generated_Source\\PSoC5\\PrISM_1.h"