ARM GAS  C:\Users\LOCALA~1\AppData\Local\Temp\ccZizSQ2.s 			page 1


   1              		.syntax unified
   2              		.cpu cortex-m3
   3              		.fpu softvfp
   4              		.eabi_attribute 20, 1
   5              		.eabi_attribute 21, 1
   6              		.eabi_attribute 23, 3
   7              		.eabi_attribute 24, 1
   8              		.eabi_attribute 25, 1
   9              		.eabi_attribute 26, 1
  10              		.eabi_attribute 30, 6
  11              		.eabi_attribute 34, 1
  12              		.eabi_attribute 18, 4
  13              		.thumb
  14              		.file	"PrISM_1.c"
  15              		.text
  16              	.Ltext0:
  17              		.cfi_sections	.debug_frame
  18              		.global	PrISM_1_initVar
  19              		.bss
  20              		.type	PrISM_1_initVar, %object
  21              		.size	PrISM_1_initVar, 1
  22              	PrISM_1_initVar:
  23 0000 00       		.space	1
  24              		.section	.text.PrISM_1_Start,"ax",%progbits
  25              		.align	2
  26              		.global	PrISM_1_Start
  27              		.thumb
  28              		.thumb_func
  29              		.type	PrISM_1_Start, %function
  30              	PrISM_1_Start:
  31              	.LFB0:
  32              		.file 1 "Generated_Source\\PSoC5\\PrISM_1.c"
   1:Generated_Source\PSoC5/PrISM_1.c **** /*******************************************************************************
   2:Generated_Source\PSoC5/PrISM_1.c **** * File Name: PrISM_1.c
   3:Generated_Source\PSoC5/PrISM_1.c **** * Version 2.20
   4:Generated_Source\PSoC5/PrISM_1.c **** *
   5:Generated_Source\PSoC5/PrISM_1.c **** * Description:
   6:Generated_Source\PSoC5/PrISM_1.c **** *  This file provides the source code of the API for the PrISM Component.
   7:Generated_Source\PSoC5/PrISM_1.c **** *
   8:Generated_Source\PSoC5/PrISM_1.c **** * Note:
   9:Generated_Source\PSoC5/PrISM_1.c **** *  The PRiSM Component consists of a 8, 16, 24, 32 - bit PrISM, it
  10:Generated_Source\PSoC5/PrISM_1.c **** *  depends on length Polynomial value and user selected Seed Value. 
  11:Generated_Source\PSoC5/PrISM_1.c **** *
  12:Generated_Source\PSoC5/PrISM_1.c **** ********************************************************************************
  13:Generated_Source\PSoC5/PrISM_1.c **** * Copyright 2008-2012, Cypress Semiconductor Corporation.  All rights reserved.
  14:Generated_Source\PSoC5/PrISM_1.c **** * You may use this file only in accordance with the license, terms, conditions, 
  15:Generated_Source\PSoC5/PrISM_1.c **** * disclaimers, and limitations in the end user license agreement accompanying 
  16:Generated_Source\PSoC5/PrISM_1.c **** * the software package with which this file was provided.
  17:Generated_Source\PSoC5/PrISM_1.c **** *******************************************************************************/
  18:Generated_Source\PSoC5/PrISM_1.c **** 
  19:Generated_Source\PSoC5/PrISM_1.c **** #include "PrISM_1.h"
  20:Generated_Source\PSoC5/PrISM_1.c **** 
  21:Generated_Source\PSoC5/PrISM_1.c **** 
  22:Generated_Source\PSoC5/PrISM_1.c **** /***************************************
  23:Generated_Source\PSoC5/PrISM_1.c **** * Local data allocation
  24:Generated_Source\PSoC5/PrISM_1.c **** ***************************************/
  25:Generated_Source\PSoC5/PrISM_1.c **** 
ARM GAS  C:\Users\LOCALA~1\AppData\Local\Temp\ccZizSQ2.s 			page 2


  26:Generated_Source\PSoC5/PrISM_1.c **** uint8 PrISM_1_initVar = 0u;
  27:Generated_Source\PSoC5/PrISM_1.c **** 
  28:Generated_Source\PSoC5/PrISM_1.c **** 
  29:Generated_Source\PSoC5/PrISM_1.c **** /*******************************************************************************
  30:Generated_Source\PSoC5/PrISM_1.c **** * FUNCTION NAME:   PrISM_1_Start
  31:Generated_Source\PSoC5/PrISM_1.c **** ********************************************************************************
  32:Generated_Source\PSoC5/PrISM_1.c **** *
  33:Generated_Source\PSoC5/PrISM_1.c **** * Summary:
  34:Generated_Source\PSoC5/PrISM_1.c **** *  The start function sets Polynomial, Seed and Pulse Density registers provided
  35:Generated_Source\PSoC5/PrISM_1.c **** *  by customizer. PrISM computation starts on rising edge of input clock.
  36:Generated_Source\PSoC5/PrISM_1.c **** *
  37:Generated_Source\PSoC5/PrISM_1.c **** * Parameters:  
  38:Generated_Source\PSoC5/PrISM_1.c **** *  None.
  39:Generated_Source\PSoC5/PrISM_1.c **** *
  40:Generated_Source\PSoC5/PrISM_1.c **** * Return:  
  41:Generated_Source\PSoC5/PrISM_1.c **** *  None.
  42:Generated_Source\PSoC5/PrISM_1.c **** *
  43:Generated_Source\PSoC5/PrISM_1.c **** * Global variables:
  44:Generated_Source\PSoC5/PrISM_1.c **** *  The PrISM_1_initVar variable is used to indicate initial
  45:Generated_Source\PSoC5/PrISM_1.c **** *  configuration of this component.  The variable is initialized to zero and
  46:Generated_Source\PSoC5/PrISM_1.c **** *  set to 1 the first time PrISM_1_Start() is called. This allows for
  47:Generated_Source\PSoC5/PrISM_1.c **** *  component initialization without re-initialization in all subsequent calls
  48:Generated_Source\PSoC5/PrISM_1.c **** *  to the PrISM_1_Start() routine. 
  49:Generated_Source\PSoC5/PrISM_1.c **** 
  50:Generated_Source\PSoC5/PrISM_1.c **** * Reentrant:
  51:Generated_Source\PSoC5/PrISM_1.c **** *  No.
  52:Generated_Source\PSoC5/PrISM_1.c **** *
  53:Generated_Source\PSoC5/PrISM_1.c **** *******************************************************************************/
  54:Generated_Source\PSoC5/PrISM_1.c **** void PrISM_1_Start(void) 
  55:Generated_Source\PSoC5/PrISM_1.c **** {
  33              		.loc 1 55 0
  34              		.cfi_startproc
  35              		@ args = 0, pretend = 0, frame = 0
  36              		@ frame_needed = 1, uses_anonymous_args = 0
  37 0000 80B5     		push	{r7, lr}
  38              		.cfi_def_cfa_offset 8
  39              		.cfi_offset 7, -8
  40              		.cfi_offset 14, -4
  41 0002 00AF     		add	r7, sp, #0
  42              		.cfi_def_cfa_register 7
  56:Generated_Source\PSoC5/PrISM_1.c ****     /* If not Initialized then initialize all required hardware and software */
  57:Generated_Source\PSoC5/PrISM_1.c ****     if(PrISM_1_initVar == 0u)
  43              		.loc 1 57 0
  44 0004 054B     		ldr	r3, .L3
  45 0006 1B78     		ldrb	r3, [r3]	@ zero_extendqisi2
  46 0008 002B     		cmp	r3, #0
  47 000a 04D1     		bne	.L2
  58:Generated_Source\PSoC5/PrISM_1.c ****     {
  59:Generated_Source\PSoC5/PrISM_1.c ****         PrISM_1_Init();
  48              		.loc 1 59 0
  49 000c FFF7FEFF 		bl	PrISM_1_Init
  60:Generated_Source\PSoC5/PrISM_1.c ****         PrISM_1_initVar = 1u;
  50              		.loc 1 60 0
  51 0010 024B     		ldr	r3, .L3
  52 0012 0122     		movs	r2, #1
  53 0014 1A70     		strb	r2, [r3]
  54              	.L2:
ARM GAS  C:\Users\LOCALA~1\AppData\Local\Temp\ccZizSQ2.s 			page 3


  61:Generated_Source\PSoC5/PrISM_1.c ****     }
  62:Generated_Source\PSoC5/PrISM_1.c ****     PrISM_1_Enable();
  55              		.loc 1 62 0
  56 0016 FFF7FEFF 		bl	PrISM_1_Enable
  63:Generated_Source\PSoC5/PrISM_1.c **** }
  57              		.loc 1 63 0
  58 001a 80BD     		pop	{r7, pc}
  59              	.L4:
  60              		.align	2
  61              	.L3:
  62 001c 00000000 		.word	PrISM_1_initVar
  63              		.cfi_endproc
  64              	.LFE0:
  65              		.size	PrISM_1_Start, .-PrISM_1_Start
  66              		.section	.text.PrISM_1_Init,"ax",%progbits
  67              		.align	2
  68              		.global	PrISM_1_Init
  69              		.thumb
  70              		.thumb_func
  71              		.type	PrISM_1_Init, %function
  72              	PrISM_1_Init:
  73              	.LFB1:
  64:Generated_Source\PSoC5/PrISM_1.c **** 
  65:Generated_Source\PSoC5/PrISM_1.c **** 
  66:Generated_Source\PSoC5/PrISM_1.c **** /*******************************************************************************
  67:Generated_Source\PSoC5/PrISM_1.c **** * Function Name: PrISM_1_Init
  68:Generated_Source\PSoC5/PrISM_1.c **** ********************************************************************************
  69:Generated_Source\PSoC5/PrISM_1.c **** *
  70:Generated_Source\PSoC5/PrISM_1.c **** * Summary:
  71:Generated_Source\PSoC5/PrISM_1.c **** *  Initialize component's parameters to the parameters set by user in the 
  72:Generated_Source\PSoC5/PrISM_1.c **** *  customizer of the component placed onto schematic. Usually called in 
  73:Generated_Source\PSoC5/PrISM_1.c **** *  PrISM_1_Start().
  74:Generated_Source\PSoC5/PrISM_1.c **** *
  75:Generated_Source\PSoC5/PrISM_1.c **** * Parameters:  
  76:Generated_Source\PSoC5/PrISM_1.c **** *  None.
  77:Generated_Source\PSoC5/PrISM_1.c **** *
  78:Generated_Source\PSoC5/PrISM_1.c **** * Return: 
  79:Generated_Source\PSoC5/PrISM_1.c **** *  None.
  80:Generated_Source\PSoC5/PrISM_1.c **** *
  81:Generated_Source\PSoC5/PrISM_1.c **** *******************************************************************************/
  82:Generated_Source\PSoC5/PrISM_1.c **** void PrISM_1_Init(void) 
  83:Generated_Source\PSoC5/PrISM_1.c **** {
  74              		.loc 1 83 0
  75              		.cfi_startproc
  76              		@ args = 0, pretend = 0, frame = 8
  77              		@ frame_needed = 1, uses_anonymous_args = 0
  78 0000 80B5     		push	{r7, lr}
  79              		.cfi_def_cfa_offset 8
  80              		.cfi_offset 7, -8
  81              		.cfi_offset 14, -4
  82 0002 82B0     		sub	sp, sp, #8
  83              		.cfi_def_cfa_offset 16
  84 0004 00AF     		add	r7, sp, #0
  85              		.cfi_def_cfa_register 7
  84:Generated_Source\PSoC5/PrISM_1.c ****     uint8 enableInterrupts;
  85:Generated_Source\PSoC5/PrISM_1.c ****     
  86:Generated_Source\PSoC5/PrISM_1.c ****     /* Writes Seed value, polynom value and density provided by customizer */
ARM GAS  C:\Users\LOCALA~1\AppData\Local\Temp\ccZizSQ2.s 			page 4


  87:Generated_Source\PSoC5/PrISM_1.c ****     PrISM_1_WriteSeed(PrISM_1_SEED);
  86              		.loc 1 87 0
  87 0006 FF20     		movs	r0, #255
  88 0008 FFF7FEFF 		bl	PrISM_1_WriteSeed
  88:Generated_Source\PSoC5/PrISM_1.c ****     PrISM_1_WritePolynomial(PrISM_1_POLYNOM);
  89              		.loc 1 88 0
  90 000c B820     		movs	r0, #184
  91 000e FFF7FEFF 		bl	PrISM_1_WritePolynomial
  89:Generated_Source\PSoC5/PrISM_1.c ****     PrISM_1_WritePulse0(PrISM_1_DENSITY0);
  92              		.loc 1 89 0
  93 0012 0820     		movs	r0, #8
  94 0014 FFF7FEFF 		bl	PrISM_1_WritePulse0
  90:Generated_Source\PSoC5/PrISM_1.c ****     PrISM_1_WritePulse1(PrISM_1_DENSITY1);
  95              		.loc 1 90 0
  96 0018 0820     		movs	r0, #8
  97 001a FFF7FEFF 		bl	PrISM_1_WritePulse1
  91:Generated_Source\PSoC5/PrISM_1.c ****     
  92:Generated_Source\PSoC5/PrISM_1.c ****     enableInterrupts = CyEnterCriticalSection();
  98              		.loc 1 92 0
  99 001e FFF7FEFF 		bl	CyEnterCriticalSection
 100 0022 0346     		mov	r3, r0
 101 0024 FB71     		strb	r3, [r7, #7]
  93:Generated_Source\PSoC5/PrISM_1.c ****     /* Set FIFO0_CLR bit to use FIFO0 as a simple one-byte buffer*/
  94:Generated_Source\PSoC5/PrISM_1.c ****     CY_SET_REG8(PrISM_1_AUX_CONTROL_PTR, 
 102              		.loc 1 94 0
 103 0026 0F4A     		ldr	r2, .L6
 104 0028 0E4B     		ldr	r3, .L6
 105 002a 1B78     		ldrb	r3, [r3]
 106 002c DBB2     		uxtb	r3, r3
 107 002e 43F00103 		orr	r3, r3, #1
 108 0032 DBB2     		uxtb	r3, r3
 109 0034 1370     		strb	r3, [r2]
  95:Generated_Source\PSoC5/PrISM_1.c ****                         CY_GET_REG8(PrISM_1_AUX_CONTROL_PTR) | PrISM_1_FIFO0_CLR);
  96:Generated_Source\PSoC5/PrISM_1.c ****     CyExitCriticalSection(enableInterrupts);
 110              		.loc 1 96 0
 111 0036 FB79     		ldrb	r3, [r7, #7]	@ zero_extendqisi2
 112 0038 1846     		mov	r0, r3
 113 003a FFF7FEFF 		bl	CyExitCriticalSection
  97:Generated_Source\PSoC5/PrISM_1.c ****     
  98:Generated_Source\PSoC5/PrISM_1.c ****     #if(!PrISM_1_PULSE_TYPE_HARDCODED)
  99:Generated_Source\PSoC5/PrISM_1.c ****         /* Writes density type provided by customizer */
 100:Generated_Source\PSoC5/PrISM_1.c ****         #if(PrISM_1_GREATERTHAN_OR_EQUAL == PrISM_1_COMPARE0)
 101:Generated_Source\PSoC5/PrISM_1.c ****             PrISM_1_CONTROL_REG |= PrISM_1_CTRL_COMPARE_TYPE0_GREATER_THAN_OR_EQUAL;
 102:Generated_Source\PSoC5/PrISM_1.c ****         #else
 103:Generated_Source\PSoC5/PrISM_1.c ****             PrISM_1_CONTROL_REG &= (uint8)~PrISM_1_CTRL_COMPARE_TYPE0_GREATER_THAN_OR_EQUAL;
 114              		.loc 1 103 0
 115 003e 0A4A     		ldr	r2, .L6+4
 116 0040 094B     		ldr	r3, .L6+4
 117 0042 1B78     		ldrb	r3, [r3]
 118 0044 DBB2     		uxtb	r3, r3
 119 0046 23F00203 		bic	r3, r3, #2
 120 004a DBB2     		uxtb	r3, r3
 121 004c 1370     		strb	r3, [r2]
 104:Generated_Source\PSoC5/PrISM_1.c ****         #endif /* End PrISM_1_COMPARE0 */    
 105:Generated_Source\PSoC5/PrISM_1.c ****     
 106:Generated_Source\PSoC5/PrISM_1.c ****         #if(PrISM_1_GREATERTHAN_OR_EQUAL == PrISM_1_COMPARE1)
 107:Generated_Source\PSoC5/PrISM_1.c ****             PrISM_1_CONTROL_REG |= PrISM_1_CTRL_COMPARE_TYPE1_GREATER_THAN_OR_EQUAL;
ARM GAS  C:\Users\LOCALA~1\AppData\Local\Temp\ccZizSQ2.s 			page 5


 122              		.loc 1 107 0
 123 004e 064A     		ldr	r2, .L6+4
 124 0050 054B     		ldr	r3, .L6+4
 125 0052 1B78     		ldrb	r3, [r3]
 126 0054 DBB2     		uxtb	r3, r3
 127 0056 43F00403 		orr	r3, r3, #4
 128 005a DBB2     		uxtb	r3, r3
 129 005c 1370     		strb	r3, [r2]
 108:Generated_Source\PSoC5/PrISM_1.c ****         #else
 109:Generated_Source\PSoC5/PrISM_1.c ****             PrISM_1_CONTROL_REG &= (uint8)~PrISM_1_CTRL_COMPARE_TYPE1_GREATER_THAN_OR_EQUAL;
 110:Generated_Source\PSoC5/PrISM_1.c ****         #endif /* End PrISM_1_COMPARE1 */    
 111:Generated_Source\PSoC5/PrISM_1.c ****     #endif /* End PrISM_1_PULSE_TYPE_HARDCODED */
 112:Generated_Source\PSoC5/PrISM_1.c **** }
 130              		.loc 1 112 0
 131 005e 0837     		adds	r7, r7, #8
 132              		.cfi_def_cfa_offset 8
 133 0060 BD46     		mov	sp, r7
 134              		.cfi_def_cfa_register 13
 135              		@ sp needed
 136 0062 80BD     		pop	{r7, pc}
 137              	.L7:
 138              		.align	2
 139              	.L6:
 140 0064 9B640040 		.word	1073767579
 141 0068 7B640040 		.word	1073767547
 142              		.cfi_endproc
 143              	.LFE1:
 144              		.size	PrISM_1_Init, .-PrISM_1_Init
 145              		.section	.text.PrISM_1_Enable,"ax",%progbits
 146              		.align	2
 147              		.global	PrISM_1_Enable
 148              		.thumb
 149              		.thumb_func
 150              		.type	PrISM_1_Enable, %function
 151              	PrISM_1_Enable:
 152              	.LFB2:
 113:Generated_Source\PSoC5/PrISM_1.c **** 
 114:Generated_Source\PSoC5/PrISM_1.c **** 
 115:Generated_Source\PSoC5/PrISM_1.c **** /*******************************************************************************
 116:Generated_Source\PSoC5/PrISM_1.c **** * Function Name: PrISM_1_Enable
 117:Generated_Source\PSoC5/PrISM_1.c **** ********************************************************************************
 118:Generated_Source\PSoC5/PrISM_1.c **** *  
 119:Generated_Source\PSoC5/PrISM_1.c **** * Summary: 
 120:Generated_Source\PSoC5/PrISM_1.c **** *  Enables the PrISM block operation
 121:Generated_Source\PSoC5/PrISM_1.c **** *
 122:Generated_Source\PSoC5/PrISM_1.c **** * Parameters:  
 123:Generated_Source\PSoC5/PrISM_1.c **** *  None.
 124:Generated_Source\PSoC5/PrISM_1.c **** *
 125:Generated_Source\PSoC5/PrISM_1.c **** * Return: 
 126:Generated_Source\PSoC5/PrISM_1.c **** *  None.
 127:Generated_Source\PSoC5/PrISM_1.c **** *
 128:Generated_Source\PSoC5/PrISM_1.c **** *******************************************************************************/
 129:Generated_Source\PSoC5/PrISM_1.c **** void PrISM_1_Enable(void) 
 130:Generated_Source\PSoC5/PrISM_1.c **** {
 153              		.loc 1 130 0
 154              		.cfi_startproc
 155              		@ args = 0, pretend = 0, frame = 0
ARM GAS  C:\Users\LOCALA~1\AppData\Local\Temp\ccZizSQ2.s 			page 6


 156              		@ frame_needed = 1, uses_anonymous_args = 0
 157              		@ link register save eliminated.
 158 0000 80B4     		push	{r7}
 159              		.cfi_def_cfa_offset 4
 160              		.cfi_offset 7, -4
 161 0002 00AF     		add	r7, sp, #0
 162              		.cfi_def_cfa_register 7
 131:Generated_Source\PSoC5/PrISM_1.c ****     #if(!PrISM_1_PULSE_TYPE_HARDCODED)
 132:Generated_Source\PSoC5/PrISM_1.c ****         /* Enable the PrISM computation */
 133:Generated_Source\PSoC5/PrISM_1.c ****         PrISM_1_CONTROL_REG |= PrISM_1_CTRL_ENABLE;
 163              		.loc 1 133 0
 164 0004 054A     		ldr	r2, .L9
 165 0006 054B     		ldr	r3, .L9
 166 0008 1B78     		ldrb	r3, [r3]
 167 000a DBB2     		uxtb	r3, r3
 168 000c 43F00103 		orr	r3, r3, #1
 169 0010 DBB2     		uxtb	r3, r3
 170 0012 1370     		strb	r3, [r2]
 134:Generated_Source\PSoC5/PrISM_1.c ****     #endif /* End PrISM_1_PULSE_TYPE_HARDCODED */
 135:Generated_Source\PSoC5/PrISM_1.c **** }
 171              		.loc 1 135 0
 172 0014 BD46     		mov	sp, r7
 173              		.cfi_def_cfa_register 13
 174              		@ sp needed
 175 0016 5DF8047B 		ldr	r7, [sp], #4
 176              		.cfi_restore 7
 177              		.cfi_def_cfa_offset 0
 178 001a 7047     		bx	lr
 179              	.L10:
 180              		.align	2
 181              	.L9:
 182 001c 7B640040 		.word	1073767547
 183              		.cfi_endproc
 184              	.LFE2:
 185              		.size	PrISM_1_Enable, .-PrISM_1_Enable
 186              		.section	.text.PrISM_1_Stop,"ax",%progbits
 187              		.align	2
 188              		.global	PrISM_1_Stop
 189              		.thumb
 190              		.thumb_func
 191              		.type	PrISM_1_Stop, %function
 192              	PrISM_1_Stop:
 193              	.LFB3:
 136:Generated_Source\PSoC5/PrISM_1.c **** 
 137:Generated_Source\PSoC5/PrISM_1.c **** 
 138:Generated_Source\PSoC5/PrISM_1.c **** /*******************************************************************************
 139:Generated_Source\PSoC5/PrISM_1.c **** * FUNCTION NAME:   PrISM_1_Stop
 140:Generated_Source\PSoC5/PrISM_1.c **** ********************************************************************************
 141:Generated_Source\PSoC5/PrISM_1.c **** *
 142:Generated_Source\PSoC5/PrISM_1.c **** * Summary:
 143:Generated_Source\PSoC5/PrISM_1.c **** *  Stops PrISM computation. Outputs remain constant.
 144:Generated_Source\PSoC5/PrISM_1.c **** *
 145:Generated_Source\PSoC5/PrISM_1.c **** * Parameters:  
 146:Generated_Source\PSoC5/PrISM_1.c **** *  None.
 147:Generated_Source\PSoC5/PrISM_1.c **** *
 148:Generated_Source\PSoC5/PrISM_1.c **** * Return: 
 149:Generated_Source\PSoC5/PrISM_1.c **** *  None.
ARM GAS  C:\Users\LOCALA~1\AppData\Local\Temp\ccZizSQ2.s 			page 7


 150:Generated_Source\PSoC5/PrISM_1.c **** *
 151:Generated_Source\PSoC5/PrISM_1.c **** *******************************************************************************/
 152:Generated_Source\PSoC5/PrISM_1.c **** void PrISM_1_Stop(void) 
 153:Generated_Source\PSoC5/PrISM_1.c **** {
 194              		.loc 1 153 0
 195              		.cfi_startproc
 196              		@ args = 0, pretend = 0, frame = 0
 197              		@ frame_needed = 1, uses_anonymous_args = 0
 198              		@ link register save eliminated.
 199 0000 80B4     		push	{r7}
 200              		.cfi_def_cfa_offset 4
 201              		.cfi_offset 7, -4
 202 0002 00AF     		add	r7, sp, #0
 203              		.cfi_def_cfa_register 7
 154:Generated_Source\PSoC5/PrISM_1.c ****     #if(!PrISM_1_PULSE_TYPE_HARDCODED)
 155:Generated_Source\PSoC5/PrISM_1.c ****         PrISM_1_CONTROL_REG &= (uint8)~PrISM_1_CTRL_ENABLE;
 204              		.loc 1 155 0
 205 0004 054A     		ldr	r2, .L12
 206 0006 054B     		ldr	r3, .L12
 207 0008 1B78     		ldrb	r3, [r3]
 208 000a DBB2     		uxtb	r3, r3
 209 000c 23F00103 		bic	r3, r3, #1
 210 0010 DBB2     		uxtb	r3, r3
 211 0012 1370     		strb	r3, [r2]
 156:Generated_Source\PSoC5/PrISM_1.c ****     #else
 157:Generated_Source\PSoC5/PrISM_1.c ****         /* PulseTypeHardoded option enabled - to stop PrISM use enable input */
 158:Generated_Source\PSoC5/PrISM_1.c ****     #endif /* End $INSTANCE_NAME`_PULSE_TYPE_HARDCODED */
 159:Generated_Source\PSoC5/PrISM_1.c **** }
 212              		.loc 1 159 0
 213 0014 BD46     		mov	sp, r7
 214              		.cfi_def_cfa_register 13
 215              		@ sp needed
 216 0016 5DF8047B 		ldr	r7, [sp], #4
 217              		.cfi_restore 7
 218              		.cfi_def_cfa_offset 0
 219 001a 7047     		bx	lr
 220              	.L13:
 221              		.align	2
 222              	.L12:
 223 001c 7B640040 		.word	1073767547
 224              		.cfi_endproc
 225              	.LFE3:
 226              		.size	PrISM_1_Stop, .-PrISM_1_Stop
 227              		.section	.text.PrISM_1_SetPulse0Mode,"ax",%progbits
 228              		.align	2
 229              		.global	PrISM_1_SetPulse0Mode
 230              		.thumb
 231              		.thumb_func
 232              		.type	PrISM_1_SetPulse0Mode, %function
 233              	PrISM_1_SetPulse0Mode:
 234              	.LFB4:
 160:Generated_Source\PSoC5/PrISM_1.c **** 
 161:Generated_Source\PSoC5/PrISM_1.c **** #if(!PrISM_1_PULSE_TYPE_HARDCODED)
 162:Generated_Source\PSoC5/PrISM_1.c **** 
 163:Generated_Source\PSoC5/PrISM_1.c **** 
 164:Generated_Source\PSoC5/PrISM_1.c ****     /***************************************************************************
 165:Generated_Source\PSoC5/PrISM_1.c ****     * FUNCTION NAME:     PrISM_1_SetPulse0Mode
ARM GAS  C:\Users\LOCALA~1\AppData\Local\Temp\ccZizSQ2.s 			page 8


 166:Generated_Source\PSoC5/PrISM_1.c ****     ****************************************************************************
 167:Generated_Source\PSoC5/PrISM_1.c ****     *
 168:Generated_Source\PSoC5/PrISM_1.c ****     * Summary:
 169:Generated_Source\PSoC5/PrISM_1.c ****     *  Sets the pulse density type for Density0. Less than or Equal(<=) or 
 170:Generated_Source\PSoC5/PrISM_1.c ****     *  Greater than or Equal(>=).
 171:Generated_Source\PSoC5/PrISM_1.c ****     *
 172:Generated_Source\PSoC5/PrISM_1.c ****     * Parameters:
 173:Generated_Source\PSoC5/PrISM_1.c ****     *  pulse0Type: Selected pulse density type.
 174:Generated_Source\PSoC5/PrISM_1.c ****     *
 175:Generated_Source\PSoC5/PrISM_1.c ****     * Return:
 176:Generated_Source\PSoC5/PrISM_1.c ****     *  None.
 177:Generated_Source\PSoC5/PrISM_1.c ****     *
 178:Generated_Source\PSoC5/PrISM_1.c ****     ***************************************************************************/
 179:Generated_Source\PSoC5/PrISM_1.c ****     void PrISM_1_SetPulse0Mode(uint8 pulse0Type) 
 180:Generated_Source\PSoC5/PrISM_1.c ****     {
 235              		.loc 1 180 0
 236              		.cfi_startproc
 237              		@ args = 0, pretend = 0, frame = 8
 238              		@ frame_needed = 1, uses_anonymous_args = 0
 239              		@ link register save eliminated.
 240 0000 80B4     		push	{r7}
 241              		.cfi_def_cfa_offset 4
 242              		.cfi_offset 7, -4
 243 0002 83B0     		sub	sp, sp, #12
 244              		.cfi_def_cfa_offset 16
 245 0004 00AF     		add	r7, sp, #0
 246              		.cfi_def_cfa_register 7
 247 0006 0346     		mov	r3, r0
 248 0008 FB71     		strb	r3, [r7, #7]
 181:Generated_Source\PSoC5/PrISM_1.c ****         if(pulse0Type == PrISM_1_GREATERTHAN_OR_EQUAL)
 249              		.loc 1 181 0
 250 000a FB79     		ldrb	r3, [r7, #7]	@ zero_extendqisi2
 251 000c 012B     		cmp	r3, #1
 252 000e 08D1     		bne	.L15
 182:Generated_Source\PSoC5/PrISM_1.c ****         {
 183:Generated_Source\PSoC5/PrISM_1.c ****             PrISM_1_CONTROL_REG |= PrISM_1_CTRL_COMPARE_TYPE0_GREATER_THAN_OR_EQUAL;
 253              		.loc 1 183 0
 254 0010 0A4A     		ldr	r2, .L17
 255 0012 0A4B     		ldr	r3, .L17
 256 0014 1B78     		ldrb	r3, [r3]
 257 0016 DBB2     		uxtb	r3, r3
 258 0018 43F00203 		orr	r3, r3, #2
 259 001c DBB2     		uxtb	r3, r3
 260 001e 1370     		strb	r3, [r2]
 261 0020 07E0     		b	.L14
 262              	.L15:
 184:Generated_Source\PSoC5/PrISM_1.c ****         }
 185:Generated_Source\PSoC5/PrISM_1.c ****         else
 186:Generated_Source\PSoC5/PrISM_1.c ****         {
 187:Generated_Source\PSoC5/PrISM_1.c ****             PrISM_1_CONTROL_REG &= (uint8)~PrISM_1_CTRL_COMPARE_TYPE0_GREATER_THAN_OR_EQUAL;
 263              		.loc 1 187 0
 264 0022 064A     		ldr	r2, .L17
 265 0024 054B     		ldr	r3, .L17
 266 0026 1B78     		ldrb	r3, [r3]
 267 0028 DBB2     		uxtb	r3, r3
 268 002a 23F00203 		bic	r3, r3, #2
 269 002e DBB2     		uxtb	r3, r3
ARM GAS  C:\Users\LOCALA~1\AppData\Local\Temp\ccZizSQ2.s 			page 9


 270 0030 1370     		strb	r3, [r2]
 271              	.L14:
 188:Generated_Source\PSoC5/PrISM_1.c ****         }
 189:Generated_Source\PSoC5/PrISM_1.c ****     }
 272              		.loc 1 189 0
 273 0032 0C37     		adds	r7, r7, #12
 274              		.cfi_def_cfa_offset 4
 275 0034 BD46     		mov	sp, r7
 276              		.cfi_def_cfa_register 13
 277              		@ sp needed
 278 0036 5DF8047B 		ldr	r7, [sp], #4
 279              		.cfi_restore 7
 280              		.cfi_def_cfa_offset 0
 281 003a 7047     		bx	lr
 282              	.L18:
 283              		.align	2
 284              	.L17:
 285 003c 7B640040 		.word	1073767547
 286              		.cfi_endproc
 287              	.LFE4:
 288              		.size	PrISM_1_SetPulse0Mode, .-PrISM_1_SetPulse0Mode
 289              		.section	.text.PrISM_1_SetPulse1Mode,"ax",%progbits
 290              		.align	2
 291              		.global	PrISM_1_SetPulse1Mode
 292              		.thumb
 293              		.thumb_func
 294              		.type	PrISM_1_SetPulse1Mode, %function
 295              	PrISM_1_SetPulse1Mode:
 296              	.LFB5:
 190:Generated_Source\PSoC5/PrISM_1.c ****     
 191:Generated_Source\PSoC5/PrISM_1.c ****     
 192:Generated_Source\PSoC5/PrISM_1.c ****     /***************************************************************************
 193:Generated_Source\PSoC5/PrISM_1.c ****     * FUNCTION NAME:   PrISM_1_SetPulse1Mode
 194:Generated_Source\PSoC5/PrISM_1.c ****     ****************************************************************************
 195:Generated_Source\PSoC5/PrISM_1.c ****     *
 196:Generated_Source\PSoC5/PrISM_1.c ****     * Summary:
 197:Generated_Source\PSoC5/PrISM_1.c ****     *  Sets the pulse density type for Density1. Less than or Equal(<=) or 
 198:Generated_Source\PSoC5/PrISM_1.c ****     *  Greater than or Equal(>=).
 199:Generated_Source\PSoC5/PrISM_1.c ****     *
 200:Generated_Source\PSoC5/PrISM_1.c ****     * Parameters:  
 201:Generated_Source\PSoC5/PrISM_1.c ****     *  pulse1Type: Selected pulse density type.
 202:Generated_Source\PSoC5/PrISM_1.c ****     *
 203:Generated_Source\PSoC5/PrISM_1.c ****     * Return:
 204:Generated_Source\PSoC5/PrISM_1.c ****     *  None.
 205:Generated_Source\PSoC5/PrISM_1.c ****     *
 206:Generated_Source\PSoC5/PrISM_1.c ****     ***************************************************************************/
 207:Generated_Source\PSoC5/PrISM_1.c ****     void PrISM_1_SetPulse1Mode(uint8 pulse1Type) 
 208:Generated_Source\PSoC5/PrISM_1.c ****     {
 297              		.loc 1 208 0
 298              		.cfi_startproc
 299              		@ args = 0, pretend = 0, frame = 8
 300              		@ frame_needed = 1, uses_anonymous_args = 0
 301              		@ link register save eliminated.
 302 0000 80B4     		push	{r7}
 303              		.cfi_def_cfa_offset 4
 304              		.cfi_offset 7, -4
 305 0002 83B0     		sub	sp, sp, #12
ARM GAS  C:\Users\LOCALA~1\AppData\Local\Temp\ccZizSQ2.s 			page 10


 306              		.cfi_def_cfa_offset 16
 307 0004 00AF     		add	r7, sp, #0
 308              		.cfi_def_cfa_register 7
 309 0006 0346     		mov	r3, r0
 310 0008 FB71     		strb	r3, [r7, #7]
 209:Generated_Source\PSoC5/PrISM_1.c ****         if(pulse1Type == PrISM_1_GREATERTHAN_OR_EQUAL)
 311              		.loc 1 209 0
 312 000a FB79     		ldrb	r3, [r7, #7]	@ zero_extendqisi2
 313 000c 012B     		cmp	r3, #1
 314 000e 08D1     		bne	.L20
 210:Generated_Source\PSoC5/PrISM_1.c ****         {
 211:Generated_Source\PSoC5/PrISM_1.c ****             PrISM_1_CONTROL_REG |= PrISM_1_CTRL_COMPARE_TYPE1_GREATER_THAN_OR_EQUAL;
 315              		.loc 1 211 0
 316 0010 0A4A     		ldr	r2, .L22
 317 0012 0A4B     		ldr	r3, .L22
 318 0014 1B78     		ldrb	r3, [r3]
 319 0016 DBB2     		uxtb	r3, r3
 320 0018 43F00403 		orr	r3, r3, #4
 321 001c DBB2     		uxtb	r3, r3
 322 001e 1370     		strb	r3, [r2]
 323 0020 07E0     		b	.L19
 324              	.L20:
 212:Generated_Source\PSoC5/PrISM_1.c ****         }
 213:Generated_Source\PSoC5/PrISM_1.c ****         else
 214:Generated_Source\PSoC5/PrISM_1.c ****         {
 215:Generated_Source\PSoC5/PrISM_1.c ****             PrISM_1_CONTROL_REG &= (uint8)~PrISM_1_CTRL_COMPARE_TYPE1_GREATER_THAN_OR_EQUAL;
 325              		.loc 1 215 0
 326 0022 064A     		ldr	r2, .L22
 327 0024 054B     		ldr	r3, .L22
 328 0026 1B78     		ldrb	r3, [r3]
 329 0028 DBB2     		uxtb	r3, r3
 330 002a 23F00403 		bic	r3, r3, #4
 331 002e DBB2     		uxtb	r3, r3
 332 0030 1370     		strb	r3, [r2]
 333              	.L19:
 216:Generated_Source\PSoC5/PrISM_1.c ****         }
 217:Generated_Source\PSoC5/PrISM_1.c ****     }
 334              		.loc 1 217 0
 335 0032 0C37     		adds	r7, r7, #12
 336              		.cfi_def_cfa_offset 4
 337 0034 BD46     		mov	sp, r7
 338              		.cfi_def_cfa_register 13
 339              		@ sp needed
 340 0036 5DF8047B 		ldr	r7, [sp], #4
 341              		.cfi_restore 7
 342              		.cfi_def_cfa_offset 0
 343 003a 7047     		bx	lr
 344              	.L23:
 345              		.align	2
 346              	.L22:
 347 003c 7B640040 		.word	1073767547
 348              		.cfi_endproc
 349              	.LFE5:
 350              		.size	PrISM_1_SetPulse1Mode, .-PrISM_1_SetPulse1Mode
 351              		.section	.text.PrISM_1_ReadSeed,"ax",%progbits
 352              		.align	2
 353              		.global	PrISM_1_ReadSeed
ARM GAS  C:\Users\LOCALA~1\AppData\Local\Temp\ccZizSQ2.s 			page 11


 354              		.thumb
 355              		.thumb_func
 356              		.type	PrISM_1_ReadSeed, %function
 357              	PrISM_1_ReadSeed:
 358              	.LFB6:
 218:Generated_Source\PSoC5/PrISM_1.c **** 
 219:Generated_Source\PSoC5/PrISM_1.c **** #endif /* End PrISM_1_PULSE_TYPE_HARDCODED == 0 */
 220:Generated_Source\PSoC5/PrISM_1.c **** 
 221:Generated_Source\PSoC5/PrISM_1.c **** 
 222:Generated_Source\PSoC5/PrISM_1.c **** /*******************************************************************************
 223:Generated_Source\PSoC5/PrISM_1.c **** * FUNCTION NAME:   PrISM_1_ReadSeed
 224:Generated_Source\PSoC5/PrISM_1.c **** ********************************************************************************
 225:Generated_Source\PSoC5/PrISM_1.c **** *
 226:Generated_Source\PSoC5/PrISM_1.c **** * Summary:
 227:Generated_Source\PSoC5/PrISM_1.c **** *  Reads the PrISM Seed register.
 228:Generated_Source\PSoC5/PrISM_1.c **** *
 229:Generated_Source\PSoC5/PrISM_1.c **** * Parameters:
 230:Generated_Source\PSoC5/PrISM_1.c **** *  None.
 231:Generated_Source\PSoC5/PrISM_1.c **** *
 232:Generated_Source\PSoC5/PrISM_1.c **** * Return:
 233:Generated_Source\PSoC5/PrISM_1.c **** *  Current Period register value.
 234:Generated_Source\PSoC5/PrISM_1.c **** *
 235:Generated_Source\PSoC5/PrISM_1.c **** *******************************************************************************/
 236:Generated_Source\PSoC5/PrISM_1.c **** uint8 PrISM_1_ReadSeed(void) 
 237:Generated_Source\PSoC5/PrISM_1.c **** {
 359              		.loc 1 237 0
 360              		.cfi_startproc
 361              		@ args = 0, pretend = 0, frame = 0
 362              		@ frame_needed = 1, uses_anonymous_args = 0
 363              		@ link register save eliminated.
 364 0000 80B4     		push	{r7}
 365              		.cfi_def_cfa_offset 4
 366              		.cfi_offset 7, -4
 367 0002 00AF     		add	r7, sp, #0
 368              		.cfi_def_cfa_register 7
 238:Generated_Source\PSoC5/PrISM_1.c ****     return( CY_GET_REG8(PrISM_1_SEED_PTR) );
 369              		.loc 1 238 0
 370 0004 034B     		ldr	r3, .L26
 371 0006 1B78     		ldrb	r3, [r3]
 372 0008 DBB2     		uxtb	r3, r3
 239:Generated_Source\PSoC5/PrISM_1.c **** }
 373              		.loc 1 239 0
 374 000a 1846     		mov	r0, r3
 375 000c BD46     		mov	sp, r7
 376              		.cfi_def_cfa_register 13
 377              		@ sp needed
 378 000e 5DF8047B 		ldr	r7, [sp], #4
 379              		.cfi_restore 7
 380              		.cfi_def_cfa_offset 0
 381 0012 7047     		bx	lr
 382              	.L27:
 383              		.align	2
 384              	.L26:
 385 0014 0B640040 		.word	1073767435
 386              		.cfi_endproc
 387              	.LFE6:
 388              		.size	PrISM_1_ReadSeed, .-PrISM_1_ReadSeed
ARM GAS  C:\Users\LOCALA~1\AppData\Local\Temp\ccZizSQ2.s 			page 12


 389              		.section	.text.PrISM_1_WriteSeed,"ax",%progbits
 390              		.align	2
 391              		.global	PrISM_1_WriteSeed
 392              		.thumb
 393              		.thumb_func
 394              		.type	PrISM_1_WriteSeed, %function
 395              	PrISM_1_WriteSeed:
 396              	.LFB7:
 240:Generated_Source\PSoC5/PrISM_1.c **** 
 241:Generated_Source\PSoC5/PrISM_1.c **** 
 242:Generated_Source\PSoC5/PrISM_1.c **** /*******************************************************************************
 243:Generated_Source\PSoC5/PrISM_1.c **** * FUNCTION NAME:   PrISM_1_WriteSeed
 244:Generated_Source\PSoC5/PrISM_1.c **** ********************************************************************************
 245:Generated_Source\PSoC5/PrISM_1.c **** *
 246:Generated_Source\PSoC5/PrISM_1.c **** * Summary:
 247:Generated_Source\PSoC5/PrISM_1.c **** *  Writes the PrISM Seed register with the start value.
 248:Generated_Source\PSoC5/PrISM_1.c **** *
 249:Generated_Source\PSoC5/PrISM_1.c **** * Parameters:
 250:Generated_Source\PSoC5/PrISM_1.c **** *  seed: Seed register value.
 251:Generated_Source\PSoC5/PrISM_1.c **** *
 252:Generated_Source\PSoC5/PrISM_1.c **** * Return:
 253:Generated_Source\PSoC5/PrISM_1.c **** *  None.
 254:Generated_Source\PSoC5/PrISM_1.c **** *
 255:Generated_Source\PSoC5/PrISM_1.c **** *******************************************************************************/
 256:Generated_Source\PSoC5/PrISM_1.c **** void PrISM_1_WriteSeed(uint8 seed) 
 257:Generated_Source\PSoC5/PrISM_1.c **** {
 397              		.loc 1 257 0
 398              		.cfi_startproc
 399              		@ args = 0, pretend = 0, frame = 8
 400              		@ frame_needed = 1, uses_anonymous_args = 0
 401              		@ link register save eliminated.
 402 0000 80B4     		push	{r7}
 403              		.cfi_def_cfa_offset 4
 404              		.cfi_offset 7, -4
 405 0002 83B0     		sub	sp, sp, #12
 406              		.cfi_def_cfa_offset 16
 407 0004 00AF     		add	r7, sp, #0
 408              		.cfi_def_cfa_register 7
 409 0006 0346     		mov	r3, r0
 410 0008 FB71     		strb	r3, [r7, #7]
 258:Generated_Source\PSoC5/PrISM_1.c ****     if(seed != 0u)
 411              		.loc 1 258 0
 412 000a FB79     		ldrb	r3, [r7, #7]	@ zero_extendqisi2
 413 000c 002B     		cmp	r3, #0
 414 000e 05D0     		beq	.L28
 259:Generated_Source\PSoC5/PrISM_1.c ****     {
 260:Generated_Source\PSoC5/PrISM_1.c ****         CY_SET_REG8(PrISM_1_SEED_COPY_PTR, seed);
 415              		.loc 1 260 0
 416 0010 054A     		ldr	r2, .L30
 417 0012 FB79     		ldrb	r3, [r7, #7]
 418 0014 1370     		strb	r3, [r2]
 261:Generated_Source\PSoC5/PrISM_1.c ****         CY_SET_REG8(PrISM_1_SEED_PTR, seed);
 419              		.loc 1 261 0
 420 0016 054A     		ldr	r2, .L30+4
 421 0018 FB79     		ldrb	r3, [r7, #7]
 422 001a 1370     		strb	r3, [r2]
 423              	.L28:
ARM GAS  C:\Users\LOCALA~1\AppData\Local\Temp\ccZizSQ2.s 			page 13


 262:Generated_Source\PSoC5/PrISM_1.c ****     }
 263:Generated_Source\PSoC5/PrISM_1.c **** }
 424              		.loc 1 263 0
 425 001c 0C37     		adds	r7, r7, #12
 426              		.cfi_def_cfa_offset 4
 427 001e BD46     		mov	sp, r7
 428              		.cfi_def_cfa_register 13
 429              		@ sp needed
 430 0020 5DF8047B 		ldr	r7, [sp], #4
 431              		.cfi_restore 7
 432              		.cfi_def_cfa_offset 0
 433 0024 7047     		bx	lr
 434              	.L31:
 435 0026 00BF     		.align	2
 436              	.L30:
 437 0028 4B640040 		.word	1073767499
 438 002c 0B640040 		.word	1073767435
 439              		.cfi_endproc
 440              	.LFE7:
 441              		.size	PrISM_1_WriteSeed, .-PrISM_1_WriteSeed
 442              		.section	.text.PrISM_1_ReadPolynomial,"ax",%progbits
 443              		.align	2
 444              		.global	PrISM_1_ReadPolynomial
 445              		.thumb
 446              		.thumb_func
 447              		.type	PrISM_1_ReadPolynomial, %function
 448              	PrISM_1_ReadPolynomial:
 449              	.LFB8:
 264:Generated_Source\PSoC5/PrISM_1.c **** 
 265:Generated_Source\PSoC5/PrISM_1.c **** 
 266:Generated_Source\PSoC5/PrISM_1.c **** /*******************************************************************************
 267:Generated_Source\PSoC5/PrISM_1.c **** * FUNCTION NAME:   PrISM_1_ReadPolynomial
 268:Generated_Source\PSoC5/PrISM_1.c **** ********************************************************************************
 269:Generated_Source\PSoC5/PrISM_1.c **** *
 270:Generated_Source\PSoC5/PrISM_1.c **** * Summary:
 271:Generated_Source\PSoC5/PrISM_1.c **** *  Reads the PrISM polynomial.
 272:Generated_Source\PSoC5/PrISM_1.c **** *
 273:Generated_Source\PSoC5/PrISM_1.c **** * Parameters:
 274:Generated_Source\PSoC5/PrISM_1.c **** *  None.
 275:Generated_Source\PSoC5/PrISM_1.c **** *
 276:Generated_Source\PSoC5/PrISM_1.c **** * Return:
 277:Generated_Source\PSoC5/PrISM_1.c **** *  PrISM polynomial.
 278:Generated_Source\PSoC5/PrISM_1.c **** *
 279:Generated_Source\PSoC5/PrISM_1.c **** *******************************************************************************/
 280:Generated_Source\PSoC5/PrISM_1.c **** uint8 PrISM_1_ReadPolynomial(void) 
 281:Generated_Source\PSoC5/PrISM_1.c **** {
 450              		.loc 1 281 0
 451              		.cfi_startproc
 452              		@ args = 0, pretend = 0, frame = 0
 453              		@ frame_needed = 1, uses_anonymous_args = 0
 454              		@ link register save eliminated.
 455 0000 80B4     		push	{r7}
 456              		.cfi_def_cfa_offset 4
 457              		.cfi_offset 7, -4
 458 0002 00AF     		add	r7, sp, #0
 459              		.cfi_def_cfa_register 7
 282:Generated_Source\PSoC5/PrISM_1.c ****     return( CY_GET_REG8(PrISM_1_POLYNOM_PTR) );
ARM GAS  C:\Users\LOCALA~1\AppData\Local\Temp\ccZizSQ2.s 			page 14


 460              		.loc 1 282 0
 461 0004 034B     		ldr	r3, .L34
 462 0006 1B78     		ldrb	r3, [r3]
 463 0008 DBB2     		uxtb	r3, r3
 283:Generated_Source\PSoC5/PrISM_1.c **** }
 464              		.loc 1 283 0
 465 000a 1846     		mov	r0, r3
 466 000c BD46     		mov	sp, r7
 467              		.cfi_def_cfa_register 13
 468              		@ sp needed
 469 000e 5DF8047B 		ldr	r7, [sp], #4
 470              		.cfi_restore 7
 471              		.cfi_def_cfa_offset 0
 472 0012 7047     		bx	lr
 473              	.L35:
 474              		.align	2
 475              	.L34:
 476 0014 1B640040 		.word	1073767451
 477              		.cfi_endproc
 478              	.LFE8:
 479              		.size	PrISM_1_ReadPolynomial, .-PrISM_1_ReadPolynomial
 480              		.section	.text.PrISM_1_WritePolynomial,"ax",%progbits
 481              		.align	2
 482              		.global	PrISM_1_WritePolynomial
 483              		.thumb
 484              		.thumb_func
 485              		.type	PrISM_1_WritePolynomial, %function
 486              	PrISM_1_WritePolynomial:
 487              	.LFB9:
 284:Generated_Source\PSoC5/PrISM_1.c **** 
 285:Generated_Source\PSoC5/PrISM_1.c **** 
 286:Generated_Source\PSoC5/PrISM_1.c **** /*******************************************************************************
 287:Generated_Source\PSoC5/PrISM_1.c **** * FUNCTION NAME:   PrISM_1_WritePolynomial
 288:Generated_Source\PSoC5/PrISM_1.c **** ********************************************************************************
 289:Generated_Source\PSoC5/PrISM_1.c **** *
 290:Generated_Source\PSoC5/PrISM_1.c **** * Summary:
 291:Generated_Source\PSoC5/PrISM_1.c **** *  Writes the PrISM polynomial.
 292:Generated_Source\PSoC5/PrISM_1.c **** *
 293:Generated_Source\PSoC5/PrISM_1.c **** * Parameters:
 294:Generated_Source\PSoC5/PrISM_1.c **** *  polynomial: PrISM polynomial.
 295:Generated_Source\PSoC5/PrISM_1.c **** *
 296:Generated_Source\PSoC5/PrISM_1.c **** * Return:
 297:Generated_Source\PSoC5/PrISM_1.c **** *  None.
 298:Generated_Source\PSoC5/PrISM_1.c **** *
 299:Generated_Source\PSoC5/PrISM_1.c **** *******************************************************************************/
 300:Generated_Source\PSoC5/PrISM_1.c **** void PrISM_1_WritePolynomial(uint8 polynomial) \
 301:Generated_Source\PSoC5/PrISM_1.c ****                                                                 
 302:Generated_Source\PSoC5/PrISM_1.c **** {
 488              		.loc 1 302 0
 489              		.cfi_startproc
 490              		@ args = 0, pretend = 0, frame = 8
 491              		@ frame_needed = 1, uses_anonymous_args = 0
 492              		@ link register save eliminated.
 493 0000 80B4     		push	{r7}
 494              		.cfi_def_cfa_offset 4
 495              		.cfi_offset 7, -4
 496 0002 83B0     		sub	sp, sp, #12
ARM GAS  C:\Users\LOCALA~1\AppData\Local\Temp\ccZizSQ2.s 			page 15


 497              		.cfi_def_cfa_offset 16
 498 0004 00AF     		add	r7, sp, #0
 499              		.cfi_def_cfa_register 7
 500 0006 0346     		mov	r3, r0
 501 0008 FB71     		strb	r3, [r7, #7]
 303:Generated_Source\PSoC5/PrISM_1.c ****     CY_SET_REG8(PrISM_1_POLYNOM_PTR, polynomial);
 502              		.loc 1 303 0
 503 000a 044A     		ldr	r2, .L37
 504 000c FB79     		ldrb	r3, [r7, #7]
 505 000e 1370     		strb	r3, [r2]
 304:Generated_Source\PSoC5/PrISM_1.c ****     
 305:Generated_Source\PSoC5/PrISM_1.c **** }
 506              		.loc 1 305 0
 507 0010 0C37     		adds	r7, r7, #12
 508              		.cfi_def_cfa_offset 4
 509 0012 BD46     		mov	sp, r7
 510              		.cfi_def_cfa_register 13
 511              		@ sp needed
 512 0014 5DF8047B 		ldr	r7, [sp], #4
 513              		.cfi_restore 7
 514              		.cfi_def_cfa_offset 0
 515 0018 7047     		bx	lr
 516              	.L38:
 517 001a 00BF     		.align	2
 518              	.L37:
 519 001c 1B640040 		.word	1073767451
 520              		.cfi_endproc
 521              	.LFE9:
 522              		.size	PrISM_1_WritePolynomial, .-PrISM_1_WritePolynomial
 523              		.section	.text.PrISM_1_ReadPulse0,"ax",%progbits
 524              		.align	2
 525              		.global	PrISM_1_ReadPulse0
 526              		.thumb
 527              		.thumb_func
 528              		.type	PrISM_1_ReadPulse0, %function
 529              	PrISM_1_ReadPulse0:
 530              	.LFB10:
 306:Generated_Source\PSoC5/PrISM_1.c **** 
 307:Generated_Source\PSoC5/PrISM_1.c **** 
 308:Generated_Source\PSoC5/PrISM_1.c **** /*******************************************************************************
 309:Generated_Source\PSoC5/PrISM_1.c **** * FUNCTION NAME:   PrISM_1_ReadPulse0
 310:Generated_Source\PSoC5/PrISM_1.c **** ********************************************************************************
 311:Generated_Source\PSoC5/PrISM_1.c **** *
 312:Generated_Source\PSoC5/PrISM_1.c **** * Summary:
 313:Generated_Source\PSoC5/PrISM_1.c **** *  Reads the PrISM Pulse Density0 register.
 314:Generated_Source\PSoC5/PrISM_1.c **** *
 315:Generated_Source\PSoC5/PrISM_1.c **** * Parameters:
 316:Generated_Source\PSoC5/PrISM_1.c **** *  None.
 317:Generated_Source\PSoC5/PrISM_1.c **** *
 318:Generated_Source\PSoC5/PrISM_1.c **** * Return:
 319:Generated_Source\PSoC5/PrISM_1.c **** *  Pulse Density0 register value.
 320:Generated_Source\PSoC5/PrISM_1.c **** *
 321:Generated_Source\PSoC5/PrISM_1.c **** *******************************************************************************/
 322:Generated_Source\PSoC5/PrISM_1.c **** uint8 PrISM_1_ReadPulse0(void) 
 323:Generated_Source\PSoC5/PrISM_1.c **** {
 531              		.loc 1 323 0
 532              		.cfi_startproc
ARM GAS  C:\Users\LOCALA~1\AppData\Local\Temp\ccZizSQ2.s 			page 16


 533              		@ args = 0, pretend = 0, frame = 0
 534              		@ frame_needed = 1, uses_anonymous_args = 0
 535              		@ link register save eliminated.
 536 0000 80B4     		push	{r7}
 537              		.cfi_def_cfa_offset 4
 538              		.cfi_offset 7, -4
 539 0002 00AF     		add	r7, sp, #0
 540              		.cfi_def_cfa_register 7
 324:Generated_Source\PSoC5/PrISM_1.c ****     return( CY_GET_REG8(PrISM_1_DENSITY0_PTR) );
 541              		.loc 1 324 0
 542 0004 034B     		ldr	r3, .L41
 543 0006 1B78     		ldrb	r3, [r3]
 544 0008 DBB2     		uxtb	r3, r3
 325:Generated_Source\PSoC5/PrISM_1.c **** }
 545              		.loc 1 325 0
 546 000a 1846     		mov	r0, r3
 547 000c BD46     		mov	sp, r7
 548              		.cfi_def_cfa_register 13
 549              		@ sp needed
 550 000e 5DF8047B 		ldr	r7, [sp], #4
 551              		.cfi_restore 7
 552              		.cfi_def_cfa_offset 0
 553 0012 7047     		bx	lr
 554              	.L42:
 555              		.align	2
 556              	.L41:
 557 0014 2B640040 		.word	1073767467
 558              		.cfi_endproc
 559              	.LFE10:
 560              		.size	PrISM_1_ReadPulse0, .-PrISM_1_ReadPulse0
 561              		.section	.text.PrISM_1_WritePulse0,"ax",%progbits
 562              		.align	2
 563              		.global	PrISM_1_WritePulse0
 564              		.thumb
 565              		.thumb_func
 566              		.type	PrISM_1_WritePulse0, %function
 567              	PrISM_1_WritePulse0:
 568              	.LFB11:
 326:Generated_Source\PSoC5/PrISM_1.c **** 
 327:Generated_Source\PSoC5/PrISM_1.c **** 
 328:Generated_Source\PSoC5/PrISM_1.c **** /*******************************************************************************
 329:Generated_Source\PSoC5/PrISM_1.c **** * FUNCTION NAME:   PrISM_1_WritePulse0
 330:Generated_Source\PSoC5/PrISM_1.c **** ********************************************************************************
 331:Generated_Source\PSoC5/PrISM_1.c **** *
 332:Generated_Source\PSoC5/PrISM_1.c **** * Summary:
 333:Generated_Source\PSoC5/PrISM_1.c **** *  Writes the PrISM Pulse Density0 register with the Pulse Density value.
 334:Generated_Source\PSoC5/PrISM_1.c **** *
 335:Generated_Source\PSoC5/PrISM_1.c **** * Parameters:
 336:Generated_Source\PSoC5/PrISM_1.c **** *  pulseDensity0: Pulse Density value.
 337:Generated_Source\PSoC5/PrISM_1.c **** *
 338:Generated_Source\PSoC5/PrISM_1.c **** * Return:
 339:Generated_Source\PSoC5/PrISM_1.c **** *  None.
 340:Generated_Source\PSoC5/PrISM_1.c **** *
 341:Generated_Source\PSoC5/PrISM_1.c **** *******************************************************************************/
 342:Generated_Source\PSoC5/PrISM_1.c **** void PrISM_1_WritePulse0(uint8 pulseDensity0) \
 343:Generated_Source\PSoC5/PrISM_1.c ****                                                                 
 344:Generated_Source\PSoC5/PrISM_1.c **** {
ARM GAS  C:\Users\LOCALA~1\AppData\Local\Temp\ccZizSQ2.s 			page 17


 569              		.loc 1 344 0
 570              		.cfi_startproc
 571              		@ args = 0, pretend = 0, frame = 8
 572              		@ frame_needed = 1, uses_anonymous_args = 0
 573              		@ link register save eliminated.
 574 0000 80B4     		push	{r7}
 575              		.cfi_def_cfa_offset 4
 576              		.cfi_offset 7, -4
 577 0002 83B0     		sub	sp, sp, #12
 578              		.cfi_def_cfa_offset 16
 579 0004 00AF     		add	r7, sp, #0
 580              		.cfi_def_cfa_register 7
 581 0006 0346     		mov	r3, r0
 582 0008 FB71     		strb	r3, [r7, #7]
 345:Generated_Source\PSoC5/PrISM_1.c ****     CY_SET_REG8(PrISM_1_DENSITY0_PTR, pulseDensity0);
 583              		.loc 1 345 0
 584 000a 044A     		ldr	r2, .L44
 585 000c FB79     		ldrb	r3, [r7, #7]
 586 000e 1370     		strb	r3, [r2]
 346:Generated_Source\PSoC5/PrISM_1.c **** }
 587              		.loc 1 346 0
 588 0010 0C37     		adds	r7, r7, #12
 589              		.cfi_def_cfa_offset 4
 590 0012 BD46     		mov	sp, r7
 591              		.cfi_def_cfa_register 13
 592              		@ sp needed
 593 0014 5DF8047B 		ldr	r7, [sp], #4
 594              		.cfi_restore 7
 595              		.cfi_def_cfa_offset 0
 596 0018 7047     		bx	lr
 597              	.L45:
 598 001a 00BF     		.align	2
 599              	.L44:
 600 001c 2B640040 		.word	1073767467
 601              		.cfi_endproc
 602              	.LFE11:
 603              		.size	PrISM_1_WritePulse0, .-PrISM_1_WritePulse0
 604              		.section	.text.PrISM_1_ReadPulse1,"ax",%progbits
 605              		.align	2
 606              		.global	PrISM_1_ReadPulse1
 607              		.thumb
 608              		.thumb_func
 609              		.type	PrISM_1_ReadPulse1, %function
 610              	PrISM_1_ReadPulse1:
 611              	.LFB12:
 347:Generated_Source\PSoC5/PrISM_1.c **** 
 348:Generated_Source\PSoC5/PrISM_1.c **** 
 349:Generated_Source\PSoC5/PrISM_1.c **** /*******************************************************************************
 350:Generated_Source\PSoC5/PrISM_1.c **** * FUNCTION NAME:   PrISM_1_ReadPulse1
 351:Generated_Source\PSoC5/PrISM_1.c **** ********************************************************************************
 352:Generated_Source\PSoC5/PrISM_1.c **** *
 353:Generated_Source\PSoC5/PrISM_1.c **** * Summary:
 354:Generated_Source\PSoC5/PrISM_1.c **** *  Reads the PrISM Pulse Density1 register.
 355:Generated_Source\PSoC5/PrISM_1.c **** *
 356:Generated_Source\PSoC5/PrISM_1.c **** * Parameters:
 357:Generated_Source\PSoC5/PrISM_1.c **** *  None.
 358:Generated_Source\PSoC5/PrISM_1.c **** *
ARM GAS  C:\Users\LOCALA~1\AppData\Local\Temp\ccZizSQ2.s 			page 18


 359:Generated_Source\PSoC5/PrISM_1.c **** * Return:
 360:Generated_Source\PSoC5/PrISM_1.c **** *  Pulse Density1 register value.
 361:Generated_Source\PSoC5/PrISM_1.c **** *
 362:Generated_Source\PSoC5/PrISM_1.c **** *******************************************************************************/
 363:Generated_Source\PSoC5/PrISM_1.c **** uint8 PrISM_1_ReadPulse1(void) 
 364:Generated_Source\PSoC5/PrISM_1.c **** {
 612              		.loc 1 364 0
 613              		.cfi_startproc
 614              		@ args = 0, pretend = 0, frame = 0
 615              		@ frame_needed = 1, uses_anonymous_args = 0
 616              		@ link register save eliminated.
 617 0000 80B4     		push	{r7}
 618              		.cfi_def_cfa_offset 4
 619              		.cfi_offset 7, -4
 620 0002 00AF     		add	r7, sp, #0
 621              		.cfi_def_cfa_register 7
 365:Generated_Source\PSoC5/PrISM_1.c ****     return( CY_GET_REG8(PrISM_1_DENSITY1_PTR) );
 622              		.loc 1 365 0
 623 0004 034B     		ldr	r3, .L48
 624 0006 1B78     		ldrb	r3, [r3]
 625 0008 DBB2     		uxtb	r3, r3
 366:Generated_Source\PSoC5/PrISM_1.c **** }
 626              		.loc 1 366 0
 627 000a 1846     		mov	r0, r3
 628 000c BD46     		mov	sp, r7
 629              		.cfi_def_cfa_register 13
 630              		@ sp needed
 631 000e 5DF8047B 		ldr	r7, [sp], #4
 632              		.cfi_restore 7
 633              		.cfi_def_cfa_offset 0
 634 0012 7047     		bx	lr
 635              	.L49:
 636              		.align	2
 637              	.L48:
 638 0014 3B640040 		.word	1073767483
 639              		.cfi_endproc
 640              	.LFE12:
 641              		.size	PrISM_1_ReadPulse1, .-PrISM_1_ReadPulse1
 642              		.section	.text.PrISM_1_WritePulse1,"ax",%progbits
 643              		.align	2
 644              		.global	PrISM_1_WritePulse1
 645              		.thumb
 646              		.thumb_func
 647              		.type	PrISM_1_WritePulse1, %function
 648              	PrISM_1_WritePulse1:
 649              	.LFB13:
 367:Generated_Source\PSoC5/PrISM_1.c **** 
 368:Generated_Source\PSoC5/PrISM_1.c **** 
 369:Generated_Source\PSoC5/PrISM_1.c **** /*******************************************************************************
 370:Generated_Source\PSoC5/PrISM_1.c **** * FUNCTION NAME:   PrISM_1_WritePulse1
 371:Generated_Source\PSoC5/PrISM_1.c **** ********************************************************************************
 372:Generated_Source\PSoC5/PrISM_1.c **** *
 373:Generated_Source\PSoC5/PrISM_1.c **** * Summary:
 374:Generated_Source\PSoC5/PrISM_1.c **** *  Writes the PrISM Pulse Density1 register with the Pulse Density value.
 375:Generated_Source\PSoC5/PrISM_1.c **** *
 376:Generated_Source\PSoC5/PrISM_1.c **** * Parameters:
 377:Generated_Source\PSoC5/PrISM_1.c **** *  pulseDensity1: Pulse Density value.
ARM GAS  C:\Users\LOCALA~1\AppData\Local\Temp\ccZizSQ2.s 			page 19


 378:Generated_Source\PSoC5/PrISM_1.c **** *
 379:Generated_Source\PSoC5/PrISM_1.c **** * Return:
 380:Generated_Source\PSoC5/PrISM_1.c **** *  None.
 381:Generated_Source\PSoC5/PrISM_1.c **** *
 382:Generated_Source\PSoC5/PrISM_1.c **** *******************************************************************************/
 383:Generated_Source\PSoC5/PrISM_1.c **** void PrISM_1_WritePulse1(uint8 pulseDensity1) \
 384:Generated_Source\PSoC5/PrISM_1.c ****                                                                     
 385:Generated_Source\PSoC5/PrISM_1.c **** {
 650              		.loc 1 385 0
 651              		.cfi_startproc
 652              		@ args = 0, pretend = 0, frame = 8
 653              		@ frame_needed = 1, uses_anonymous_args = 0
 654              		@ link register save eliminated.
 655 0000 80B4     		push	{r7}
 656              		.cfi_def_cfa_offset 4
 657              		.cfi_offset 7, -4
 658 0002 83B0     		sub	sp, sp, #12
 659              		.cfi_def_cfa_offset 16
 660 0004 00AF     		add	r7, sp, #0
 661              		.cfi_def_cfa_register 7
 662 0006 0346     		mov	r3, r0
 663 0008 FB71     		strb	r3, [r7, #7]
 386:Generated_Source\PSoC5/PrISM_1.c ****     CY_SET_REG8(PrISM_1_DENSITY1_PTR, pulseDensity1);
 664              		.loc 1 386 0
 665 000a 044A     		ldr	r2, .L51
 666 000c FB79     		ldrb	r3, [r7, #7]
 667 000e 1370     		strb	r3, [r2]
 387:Generated_Source\PSoC5/PrISM_1.c **** }
 668              		.loc 1 387 0
 669 0010 0C37     		adds	r7, r7, #12
 670              		.cfi_def_cfa_offset 4
 671 0012 BD46     		mov	sp, r7
 672              		.cfi_def_cfa_register 13
 673              		@ sp needed
 674 0014 5DF8047B 		ldr	r7, [sp], #4
 675              		.cfi_restore 7
 676              		.cfi_def_cfa_offset 0
 677 0018 7047     		bx	lr
 678              	.L52:
 679 001a 00BF     		.align	2
 680              	.L51:
 681 001c 3B640040 		.word	1073767483
 682              		.cfi_endproc
 683              	.LFE13:
 684              		.size	PrISM_1_WritePulse1, .-PrISM_1_WritePulse1
 685              		.text
 686              	.Letext0:
 687              		.file 2 "Generated_Source\\PSoC5\\cytypes.h"